; Function Attrs: inlinehint nounwind sspstrong uwtable
define internal fastcc void @rebuild_table_if_necessary(ptr noundef captures(none) %0) unnamed_addr #6 {
  %2 = getelementptr inbounds nuw i8, ptr %0, i64 40
  %3 = load i64, ptr %2, align 8, !tbaa !31
  %.val = load i8, ptr %0, align 8, !tbaa !18
  %4 = zext nneg i8 %.val to i64
  %5 = shl nuw i64 1, %4
  %6 = icmp eq i64 %3, %5
  br i1 %6, label %7, label %48

7:                                                ; preds = %1
  %8 = getelementptr inbounds nuw i8, ptr %0, i64 16
  %9 = load i64, ptr %8, align 8, !tbaa !27
  %10 = shl i64 %9, 1
  %.not.i = icmp ule i64 %10, %3
  %11 = shl i64 %9, 2
  %12 = icmp ugt i64 %11, %3
  %or.cond.i = and i1 %.not.i, %12
  %13 = icmp ult i64 %9, 4
  %or.cond22.i = or i1 %13, %or.cond.i
  br i1 %or.cond22.i, label %14, label %22

14:                                               ; preds = %7
  store i64 0, ptr %8, align 8, !tbaa !27
  %15 = getelementptr inbounds nuw i8, ptr %0, i64 24
  %16 = load ptr, ptr %15, align 8, !tbaa !25
  %.not17.i = icmp eq ptr %16, null
  br i1 %.not17.i, label %21, label %17

17:                                               ; preds = %14
  %18 = getelementptr [63 x %struct.st_features], ptr @features, i64 0, i64 %4, i32 3
  %19 = load i64, ptr %18, align 8, !tbaa !24
  %20 = shl i64 %19, 3
  tail call void @llvm.memset.p0.i64(ptr noundef nonnull align 1 %16, i8 noundef 0, i64 noundef %20, i1 noundef false) #25
  br label %21

21:                                               ; preds = %17, %14
  tail call fastcc void @rebuild_table_with(ptr noundef nonnull %0, ptr noundef nonnull %0)
  br label %rebuild_table.exit

22:                                               ; preds = %7
  %23 = getelementptr inbounds nuw i8, ptr %0, i64 8
  %24 = load ptr, ptr %23, align 8, !tbaa !11
  %25 = add i64 %10, -1
  %26 = tail call noalias nonnull dereferenceable(56) ptr @ruby_xmalloc(i64 noundef 56) #24
  %27 = tail call ptr @rb_st_init_existing_table_with_size(ptr noundef nonnull %26, ptr noundef %24, i64 noundef %25)
  tail call fastcc void @rebuild_table_with(ptr noundef nonnull %26, ptr noundef nonnull %0)
  %28 = load i8, ptr %26, align 8, !tbaa !18
  store i8 %28, ptr %0, align 8, !tbaa !18
  %29 = getelementptr inbounds nuw i8, ptr %26, i64 1
  %30 = load i8, ptr %29, align 1, !tbaa !21
  %31 = getelementptr inbounds nuw i8, ptr %0, i64 1
  store i8 %30, ptr %31, align 1, !tbaa !21
  %32 = getelementptr inbounds nuw i8, ptr %26, i64 2
  %33 = load i8, ptr %32, align 2, !tbaa !23
  %34 = getelementptr inbounds nuw i8, ptr %0, i64 2
  store i8 %33, ptr %34, align 2, !tbaa !23
  %35 = getelementptr inbounds nuw i8, ptr %0, i64 24
  %36 = load ptr, ptr %35, align 8, !tbaa !25
  tail call void @ruby_xfree(ptr noundef %36) #25
  %37 = getelementptr inbounds nuw i8, ptr %26, i64 24
  %38 = load ptr, ptr %37, align 8, !tbaa !25
  store ptr %38, ptr %35, align 8, !tbaa !25
  %39 = getelementptr inbounds nuw i8, ptr %0, i64 48
  %40 = load ptr, ptr %39, align 8, !tbaa !26
  tail call void @ruby_xfree(ptr noundef %40) #25
  %41 = getelementptr inbounds nuw i8, ptr %26, i64 48
  %42 = load ptr, ptr %41, align 8, !tbaa !26
  store ptr %42, ptr %39, align 8, !tbaa !26
  tail call void @ruby_xfree(ptr noundef nonnull %26) #25
  br label %rebuild_table.exit

rebuild_table.exit:                               ; preds = %21, %22
  %43 = getelementptr inbounds nuw i8, ptr %0, i64 32
  store i64 0, ptr %43, align 8, !tbaa !32
  %44 = load i64, ptr %8, align 8, !tbaa !27
  store i64 %44, ptr %2, align 8, !tbaa !31
  %45 = getelementptr inbounds nuw i8, ptr %0, i64 4
  %46 = load i32, ptr %45, align 4, !tbaa !28
  %47 = add i32 %46, 1
  store i32 %47, ptr %45, align 4, !tbaa !28
  br label %48

48:                                               ; preds = %rebuild_table.exit, %1
  ret void
}